; Function Attrs: mustprogress nounwind uwtable
define void @_ZNK5csr_t17log_special_writeEmm(ptr noundef nonnull readonly align 8 captures(none) dereferenceable(37) %0, i64 noundef %1, i64 noundef %2) local_unnamed_addr #7 align 2 personality ptr @__gxx_personality_v0 {
  %4 = alloca i64, align 8
  %5 = getelementptr inbounds nuw i8, ptr %0, i64 8
  %6 = load ptr, ptr %5, align 8, !tbaa !6
  %7 = getelementptr inbounds nuw i8, ptr %6, i64 3969
  %8 = load i8, ptr %7, align 1, !tbaa !102, !range !94, !noundef !95
  %9 = trunc nuw i8 %8 to i1
  br i1 %9, label %10, label %16

10:                                               ; preds = %3
  %11 = getelementptr inbounds nuw i8, ptr %6, i64 3840
  call void @llvm.lifetime.start.p0(i64 8, ptr nonnull %4) #30
  %12 = shl i64 %1, 4
  %13 = or disjoint i64 %12, 4
  store i64 %13, ptr %4, align 8, !tbaa !96
  %14 = invoke noundef nonnull align 8 dereferenceable(16) ptr @_ZNSt3mapIm10float128_tSt4lessImESaISt4pairIKmS0_EEEixEOm(ptr noundef nonnull align 8 dereferenceable(48) %11, ptr noundef nonnull align 8 dereferenceable(8) %4)
          to label %15 unwind label %17

15:                                               ; preds = %10
  store i64 %2, ptr %14, align 8
  %.sroa.4.0..sroa_idx = getelementptr inbounds nuw i8, ptr %14, i64 8
  store i64 0, ptr %.sroa.4.0..sroa_idx, align 8, !tbaa !150
  call void @llvm.lifetime.end.p0(i64 8, ptr nonnull %4) #30
  br label %16

16:                                               ; preds = %15, %3
  ret void

17:                                               ; preds = %10
  %18 = landingpad { ptr, i32 }
          catch ptr null
  %19 = extractvalue { ptr, i32 } %18, 0
  call void @__clang_call_terminate(ptr %19) #32
  unreachable
}